target datalayout = "e-m:e-p270:32:32-p271:32:32-p272:64:64-i64:64-i128:128-f80:128-n8:16:32:64-S128"
target triple = "x86_64-pc-linux-gnu"

; Function Attrs: nounwind uwtable
define i64 @fdt_header_size_(i32 noundef %0) #0 {
  %2 = alloca i64, align 8
  %3 = alloca i32, align 4
  store i32 %0, ptr %3, align 4, !tbaa !7
  %4 = load i32, ptr %3, align 4, !tbaa !7
  %5 = icmp ule i32 %4, 1
  br i1 %5, label %6, label %7

6:                                                ; preds = %1
  store i64 28, ptr %2, align 8
  br label %20

7:                                                ; preds = %1
  %8 = load i32, ptr %3, align 4, !tbaa !7
  %9 = icmp ule i32 %8, 2
  br i1 %9, label %10, label %11

10:                                               ; preds = %7
  store i64 32, ptr %2, align 8
  br label %20

11:                                               ; preds = %7
  %12 = load i32, ptr %3, align 4, !tbaa !7
  %13 = icmp ule i32 %12, 3
  br i1 %13, label %14, label %15

14:                                               ; preds = %11
  store i64 36, ptr %2, align 8
  br label %20

15:                                               ; preds = %11
  %16 = load i32, ptr %3, align 4, !tbaa !7
  %17 = icmp ule i32 %16, 16
  br i1 %17, label %18, label %19

18:                                               ; preds = %15
  store i64 36, ptr %2, align 8
  br label %20

19:                                               ; preds = %15
  store i64 40, ptr %2, align 8
  br label %20

20:                                               ; preds = %19, %18, %14, %10, %6
  %21 = load i64, ptr %2, align 8
  ret i64 %21
}