; Function Attrs: mustprogress nofree norecurse nosync nounwind willreturn memory(none) uwtable
define range(i64 28, 41) i64 @fdt_header_size_(i32 noundef %0) local_unnamed_addr #2 {
  %2 = icmp ult i32 %0, 2
  br i1 %2, label %9, label %3

3:                                                ; preds = %1
  %4 = icmp eq i32 %0, 2
  br i1 %4, label %9, label %5

5:                                                ; preds = %3
  %6 = icmp ult i32 %0, 4
  br i1 %6, label %9, label %7

7:                                                ; preds = %5
  %8 = icmp ult i32 %0, 17
  %. = select i1 %8, i64 36, i64 40
  br label %9

9:                                                ; preds = %7, %5, %3, %1
  %.0 = phi i64 [ 28, %1 ], [ 32, %3 ], [ 36, %5 ], [ %., %7 ]
  ret i64 %.0
}